; Function Attrs: mustprogress uwtable
define dso_local noundef nonnull align 8 dereferenceable(8) ptr @_ZlsRSoPK7WidthVP(ptr noundef nonnull returned align 8 dereferenceable(8) %0, ptr noundef %1) local_unnamed_addr #3 {
  %.not = icmp eq ptr %1, null
  br i1 %.not, label %4, label %3

3:                                                ; preds = %2
  tail call void @_ZNK7WidthVP4dumpERSo(ptr noundef nonnull align 8 dereferenceable(16) %1, ptr noundef nonnull align 8 dereferenceable(8) %0)
  br label %4

4:                                                ; preds = %3, %2
  ret ptr %0
}